target datalayout = "e-m:e-p270:32:32-p271:32:32-p272:64:64-i64:64-i128:128-f80:128-n8:16:32:64-S128"
target triple = "x86_64-pc-linux-gnu"

@.str = private unnamed_addr constant [33 x i8] c"../openssl/crypto/x509/v3_conf.c\00", align 1
@__func__.X509V3_EXT_nconf_int = private unnamed_addr constant [21 x i8] c"X509V3_EXT_nconf_int\00", align 1
@.str.3 = private unnamed_addr constant [30 x i8] c"section=%s, name=%s, value=%s\00", align 1
@.str.4 = private unnamed_addr constant [18 x i8] c"name=%s, value=%s\00", align 1
@.str.7 = private unnamed_addr constant [10 x i8] c"critical,\00", align 1
@.str.8 = private unnamed_addr constant [5 x i8] c"DER:\00", align 1
@.str.9 = private unnamed_addr constant [6 x i8] c"ASN1:\00", align 1

; Function Attrs: nounwind uwtable
define internal i32 @v3_check_generic(ptr noundef %0) #0 {
  %2 = alloca i32, align 4
  %3 = alloca ptr, align 8
  %4 = alloca i32, align 4
  %5 = alloca ptr, align 8
  %6 = alloca i32, align 4
  store ptr %0, ptr %3, align 8, !tbaa !16
  call void @llvm.lifetime.start.p0(i64 4, ptr %4) #5
  store i32 0, ptr %4, align 4, !tbaa !12
  call void @llvm.lifetime.start.p0(i64 8, ptr %5) #5
  %7 = load ptr, ptr %3, align 8, !tbaa !16
  %8 = load ptr, ptr %7, align 8, !tbaa !10
  store ptr %8, ptr %5, align 8, !tbaa !10
  %9 = load ptr, ptr %5, align 8, !tbaa !10
  %10 = call i32 @strncmp(ptr noundef %9, ptr noundef @.str.8, i64 noundef 4) #6
  %11 = icmp eq i32 %10, 0
  br i1 %11, label %12, label %15

12:                                               ; preds = %1
  %13 = load ptr, ptr %5, align 8, !tbaa !10
  %14 = getelementptr inbounds nuw i8, ptr %13, i64 4
  store ptr %14, ptr %5, align 8, !tbaa !10
  br i1 true, label %16, label %17

15:                                               ; preds = %1
  br i1 false, label %16, label %17

16:                                               ; preds = %15, %12
  store i32 1, ptr %4, align 4, !tbaa !12
  br label %28

17:                                               ; preds = %15, %12
  %18 = load ptr, ptr %5, align 8, !tbaa !10
  %19 = call i32 @strncmp(ptr noundef %18, ptr noundef @.str.9, i64 noundef 5) #6
  %20 = icmp eq i32 %19, 0
  br i1 %20, label %21, label %24

21:                                               ; preds = %17
  %22 = load ptr, ptr %5, align 8, !tbaa !10
  %23 = getelementptr inbounds nuw i8, ptr %22, i64 5
  store ptr %23, ptr %5, align 8, !tbaa !10
  br i1 true, label %25, label %26

24:                                               ; preds = %17
  br i1 false, label %25, label %26

25:                                               ; preds = %24, %21
  store i32 2, ptr %4, align 4, !tbaa !12
  br label %27

26:                                               ; preds = %24, %21
  store i32 0, ptr %2, align 4
  store i32 1, ptr %6, align 4
  br label %42

27:                                               ; preds = %25
  br label %28

28:                                               ; preds = %27, %16
  br label %29

29:                                               ; preds = %35, %28
  %30 = load ptr, ptr %5, align 8, !tbaa !10
  %31 = load i8, ptr %30, align 1, !tbaa !18
  %32 = sext i8 %31 to i32
  %33 = call i32 @ossl_ctype_check(i32 noundef %32, i32 noundef 8)
  %34 = icmp ne i32 %33, 0
  br i1 %34, label %35, label %38

35:                                               ; preds = %29
  %36 = load ptr, ptr %5, align 8, !tbaa !10
  %37 = getelementptr inbounds nuw i8, ptr %36, i32 1
  store ptr %37, ptr %5, align 8, !tbaa !10
  br label %29, !llvm.loop !21

38:                                               ; preds = %29
  %39 = load ptr, ptr %5, align 8, !tbaa !10
  %40 = load ptr, ptr %3, align 8, !tbaa !16
  store ptr %39, ptr %40, align 8, !tbaa !10
  %41 = load i32, ptr %4, align 4, !tbaa !12
  store i32 %41, ptr %2, align 4
  store i32 1, ptr %6, align 4
  br label %42

42:                                               ; preds = %38, %26
  call void @llvm.lifetime.end.p0(i64 8, ptr %5) #5
  call void @llvm.lifetime.end.p0(i64 4, ptr %4) #5
  %43 = load i32, ptr %2, align 4
  ret i32 %43
}

; Function Attrs: nounwind uwtable
define internal i32 @v3_check_critical(ptr noundef %0) #0 {
  %2 = alloca i32, align 4
  %3 = alloca ptr, align 8
  %4 = alloca ptr, align 8
  %5 = alloca i32, align 4
  store ptr %0, ptr %3, align 8, !tbaa !16
  call void @llvm.lifetime.start.p0(i64 8, ptr %4) #5
  %6 = load ptr, ptr %3, align 8, !tbaa !16
  %7 = load ptr, ptr %6, align 8, !tbaa !10
  store ptr %7, ptr %4, align 8, !tbaa !10
  %8 = load ptr, ptr %4, align 8, !tbaa !10
  %9 = call i32 @strncmp(ptr noundef %8, ptr noundef @.str.7, i64 noundef 9) #6
  %10 = icmp eq i32 %9, 0
  br i1 %10, label %11, label %14

11:                                               ; preds = %1
  %12 = load ptr, ptr %4, align 8, !tbaa !10
  %13 = getelementptr inbounds nuw i8, ptr %12, i64 9
  store ptr %13, ptr %4, align 8, !tbaa !10
  br i1 true, label %16, label %15

14:                                               ; preds = %1
  br i1 false, label %16, label %15

15:                                               ; preds = %14, %11
  store i32 0, ptr %2, align 4
  store i32 1, ptr %5, align 4
  br label %29

16:                                               ; preds = %14, %11
  br label %17

17:                                               ; preds = %23, %16
  %18 = load ptr, ptr %4, align 8, !tbaa !10
  %19 = load i8, ptr %18, align 1, !tbaa !18
  %20 = sext i8 %19 to i32
  %21 = call i32 @ossl_ctype_check(i32 noundef %20, i32 noundef 8)
  %22 = icmp ne i32 %21, 0
  br i1 %22, label %23, label %26

23:                                               ; preds = %17
  %24 = load ptr, ptr %4, align 8, !tbaa !10
  %25 = getelementptr inbounds nuw i8, ptr %24, i32 1
  store ptr %25, ptr %4, align 8, !tbaa !10
  br label %17, !llvm.loop !19

26:                                               ; preds = %17
  %27 = load ptr, ptr %4, align 8, !tbaa !10
  %28 = load ptr, ptr %3, align 8, !tbaa !16
  store ptr %27, ptr %28, align 8, !tbaa !10
  store i32 1, ptr %2, align 4
  store i32 1, ptr %5, align 4
  br label %29

29:                                               ; preds = %26, %15
  call void @llvm.lifetime.end.p0(i64 8, ptr %4) #5
  %30 = load i32, ptr %2, align 4
  ret i32 %30
}

; Function Attrs: nounwind uwtable
define internal ptr @X509V3_EXT_nconf_int(ptr noundef %0, ptr noundef %1, ptr noundef %2, ptr noundef %3, ptr noundef %4) #0 {
  %6 = alloca ptr, align 8
  %7 = alloca ptr, align 8
  %8 = alloca ptr, align 8
  %9 = alloca ptr, align 8
  %10 = alloca ptr, align 8
  %11 = alloca ptr, align 8
  %12 = alloca i32, align 4
  %13 = alloca i32, align 4
  %14 = alloca ptr, align 8
  %15 = alloca i32, align 4
  store ptr %0, ptr %7, align 8, !tbaa !3
  store ptr %1, ptr %8, align 8, !tbaa !8
  store ptr %2, ptr %9, align 8, !tbaa !10
  store ptr %3, ptr %10, align 8, !tbaa !10
  store ptr %4, ptr %11, align 8, !tbaa !10
  call void @llvm.lifetime.start.p0(i64 4, ptr %12) #5
  call void @llvm.lifetime.start.p0(i64 4, ptr %13) #5
  call void @llvm.lifetime.start.p0(i64 8, ptr %14) #5
  %16 = call i32 @v3_check_critical(ptr noundef %11)
  store i32 %16, ptr %12, align 4, !tbaa !12
  %17 = call i32 @v3_check_generic(ptr noundef %11)
  store i32 %17, ptr %13, align 4, !tbaa !12
  %18 = icmp ne i32 %17, 0
  br i1 %18, label %19, label %26

19:                                               ; preds = %5
  %20 = load ptr, ptr %10, align 8, !tbaa !10
  %21 = load ptr, ptr %11, align 8, !tbaa !10
  %22 = load i32, ptr %12, align 4, !tbaa !12
  %23 = load i32, ptr %13, align 4, !tbaa !12
  %24 = load ptr, ptr %8, align 8, !tbaa !8
  %25 = call ptr @v3_generic_extension(ptr noundef %20, ptr noundef %21, i32 noundef %22, i32 noundef %23, ptr noundef %24)
  store ptr %25, ptr %6, align 8
  store i32 1, ptr %15, align 4
  br label %49

26:                                               ; preds = %5
  %27 = load ptr, ptr %7, align 8, !tbaa !3
  %28 = load ptr, ptr %8, align 8, !tbaa !8
  %29 = load ptr, ptr %10, align 8, !tbaa !10
  %30 = call i32 @OBJ_sn2nid(ptr noundef %29)
  %31 = load i32, ptr %12, align 4, !tbaa !12
  %32 = load ptr, ptr %11, align 8, !tbaa !10
  %33 = call ptr @do_ext_nconf(ptr noundef %27, ptr noundef %28, i32 noundef %30, i32 noundef %31, ptr noundef %32)
  store ptr %33, ptr %14, align 8, !tbaa !14
  %34 = load ptr, ptr %14, align 8, !tbaa !14
  %35 = icmp ne ptr %34, null
  br i1 %35, label %47, label %36

36:                                               ; preds = %26
  %37 = load ptr, ptr %9, align 8, !tbaa !10
  %38 = icmp ne ptr %37, null
  br i1 %38, label %39, label %43

39:                                               ; preds = %36
  call void @ERR_new()
  call void @ERR_set_debug(ptr noundef @.str, i32 noundef 48, ptr noundef @__func__.X509V3_EXT_nconf_int)
  %40 = load ptr, ptr %9, align 8, !tbaa !10
  %41 = load ptr, ptr %10, align 8, !tbaa !10
  %42 = load ptr, ptr %11, align 8, !tbaa !10
  call void (i32, i32, ptr, ...) @ERR_set_error(i32 noundef 34, i32 noundef 128, ptr noundef @.str.3, ptr noundef %40, ptr noundef %41, ptr noundef %42)
  br label %46

43:                                               ; preds = %36
  call void @ERR_new()
  call void @ERR_set_debug(ptr noundef @.str, i32 noundef 52, ptr noundef @__func__.X509V3_EXT_nconf_int)
  %44 = load ptr, ptr %10, align 8, !tbaa !10
  %45 = load ptr, ptr %11, align 8, !tbaa !10
  call void (i32, i32, ptr, ...) @ERR_set_error(i32 noundef 34, i32 noundef 128, ptr noundef @.str.4, ptr noundef %44, ptr noundef %45)
  br label %46

46:                                               ; preds = %43, %39
  br label %47

47:                                               ; preds = %46, %26
  %48 = load ptr, ptr %14, align 8, !tbaa !14
  store ptr %48, ptr %6, align 8
  store i32 1, ptr %15, align 4
  br label %49

49:                                               ; preds = %47, %19
  call void @llvm.lifetime.end.p0(i64 8, ptr %14) #5
  call void @llvm.lifetime.end.p0(i64 4, ptr %13) #5
  call void @llvm.lifetime.end.p0(i64 4, ptr %12) #5
  %50 = load ptr, ptr %6, align 8
  ret ptr %50
}