; Function Attrs: nounwind uwtable
define internal fastcc ptr @X509V3_EXT_nconf_int(ptr noundef %0, ptr noundef %1, ptr noundef %2, ptr noundef %3, ptr noundef %4) unnamed_addr #0 {
  %6 = tail call i32 @strncmp(ptr noundef nonnull dereferenceable(1) %4, ptr noundef nonnull dereferenceable(10) @.str.7, i64 noundef 9) #5
  %7 = icmp eq i32 %6, 0
  br i1 %7, label %8, label %v3_check_critical.exit

8:                                                ; preds = %5
  %9 = getelementptr inbounds nuw i8, ptr %4, i64 9
  br label %10

10:                                               ; preds = %10, %8
  %.0.i = phi ptr [ %9, %8 ], [ %14, %10 ]
  %11 = load i8, ptr %.0.i, align 1, !tbaa !3
  %12 = sext i8 %11 to i32
  %13 = tail call i32 @ossl_ctype_check(i32 noundef %12, i32 noundef 8) #6
  %.not.i = icmp eq i32 %13, 0
  %14 = getelementptr inbounds nuw i8, ptr %.0.i, i64 1
  br i1 %.not.i, label %v3_check_critical.exit, label %10, !llvm.loop !6

v3_check_critical.exit:                           ; preds = %10, %5
  %.024 = phi ptr [ %4, %5 ], [ %.0.i, %10 ]
  %.07.i = phi i32 [ 0, %5 ], [ 1, %10 ]
  %15 = tail call i32 @strncmp(ptr noundef nonnull dereferenceable(1) %.024, ptr noundef nonnull dereferenceable(5) @.str.8, i64 noundef 4) #5
  %16 = icmp eq i32 %15, 0
  br i1 %16, label %20, label %17

17:                                               ; preds = %v3_check_critical.exit
  %18 = tail call i32 @strncmp(ptr noundef nonnull dereferenceable(1) %.024, ptr noundef nonnull dereferenceable(6) @.str.9, i64 noundef 5) #5
  %19 = icmp eq i32 %18, 0
  br i1 %19, label %20, label %28

20:                                               ; preds = %17, %v3_check_critical.exit
  %.sink.i = phi i64 [ 4, %v3_check_critical.exit ], [ 5, %17 ]
  %.010.i = phi i32 [ 1, %v3_check_critical.exit ], [ 2, %17 ]
  %21 = getelementptr inbounds nuw i8, ptr %.024, i64 %.sink.i
  br label %22

22:                                               ; preds = %22, %20
  %.1.i = phi ptr [ %21, %20 ], [ %26, %22 ]
  %23 = load i8, ptr %.1.i, align 1, !tbaa !3
  %24 = sext i8 %23 to i32
  %25 = tail call i32 @ossl_ctype_check(i32 noundef %24, i32 noundef 8) #6
  %.not.i18 = icmp eq i32 %25, 0
  %26 = getelementptr inbounds nuw i8, ptr %.1.i, i64 1
  br i1 %.not.i18, label %v3_check_generic.exit, label %22, !llvm.loop !8

v3_check_generic.exit:                            ; preds = %22
  %27 = tail call fastcc ptr @v3_generic_extension(ptr noundef %3, ptr noundef nonnull %.1.i, i32 noundef %.07.i, i32 noundef %.010.i, ptr noundef %1)
  br label %34

28:                                               ; preds = %17
  %29 = tail call i32 @OBJ_sn2nid(ptr noundef %3) #6
  %30 = tail call fastcc ptr @do_ext_nconf(ptr noundef %0, ptr noundef %1, i32 noundef %29, i32 noundef %.07.i, ptr noundef nonnull %.024)
  %.not16 = icmp eq ptr %30, null
  br i1 %.not16, label %31, label %34

31:                                               ; preds = %28
  %.not17 = icmp eq ptr %2, null
  tail call void @ERR_new() #6
  br i1 %.not17, label %33, label %32

32:                                               ; preds = %31
  tail call void @ERR_set_debug(ptr noundef nonnull @.str, i32 noundef 48, ptr noundef nonnull @__func__.X509V3_EXT_nconf_int) #6
  tail call void (i32, i32, ptr, ...) @ERR_set_error(i32 noundef 34, i32 noundef 128, ptr noundef nonnull @.str.3, ptr noundef nonnull %2, ptr noundef %3, ptr noundef nonnull %.024) #6
  br label %34

33:                                               ; preds = %31
  tail call void @ERR_set_debug(ptr noundef nonnull @.str, i32 noundef 52, ptr noundef nonnull @__func__.X509V3_EXT_nconf_int) #6
  tail call void (i32, i32, ptr, ...) @ERR_set_error(i32 noundef 34, i32 noundef 128, ptr noundef nonnull @.str.4, ptr noundef %3, ptr noundef nonnull %.024) #6
  br label %34

34:                                               ; preds = %28, %33, %32, %v3_check_generic.exit
  %.0 = phi ptr [ %27, %v3_check_generic.exit ], [ null, %32 ], [ null, %33 ], [ %30, %28 ]
  ret ptr %.0
}